; Function Attrs: nounwind uwtable
define ptr @l_Lean_PrettyPrinter_Delaborator_parentProj_x3f(i8 noundef zeroext %0, ptr noundef %1, ptr noundef %2, ptr noundef %3, ptr noundef %4, ptr noundef %5, ptr noundef %6) local_unnamed_addr #0 {
  %8 = tail call zeroext i8 @l_Lean_Expr_isApp(ptr noundef %1) #4
  %9 = icmp eq i8 %8, 0
  br i1 %9, label %10, label %17

10:                                               ; preds = %7
  tail call void @lean_inc_heartbeat() #4
  %11 = tail call noalias ptr @mi_malloc_small(i64 noundef 24) #4
  %12 = icmp eq ptr %11, null
  br i1 %12, label %13, label %lean_alloc_ctor.exit

13:                                               ; preds = %10
  tail call void @lean_internal_panic_out_of_memory() #5
  unreachable

lean_alloc_ctor.exit:                             ; preds = %10
  %14 = getelementptr inbounds nuw i8, ptr %11, i64 4
  store i32 1, ptr %11, align 4, !tbaa !8
  store i32 131096, ptr %14, align 4
  %15 = getelementptr inbounds nuw i8, ptr %11, i64 8
  store ptr inttoptr (i64 1 to ptr), ptr %15, align 8, !tbaa !4
  %16 = getelementptr inbounds nuw i8, ptr %11, i64 16
  store ptr %6, ptr %16, align 8, !tbaa !4
  br label %19

17:                                               ; preds = %7
  %18 = tail call ptr @l_Lean_PrettyPrinter_Delaborator_parentProj_x3f___lambda__1(ptr noundef %1, i8 noundef zeroext %0, ptr nonnull poison, ptr noundef %2, ptr noundef %3, ptr noundef %4, ptr noundef %5, ptr noundef %6)
  br label %19

19:                                               ; preds = %17, %lean_alloc_ctor.exit
  %.0 = phi ptr [ %11, %lean_alloc_ctor.exit ], [ %18, %17 ]
  ret ptr %.0
}